target datalayout = "e-m:e-p270:32:32-p271:32:32-p272:64:64-i64:64-i128:128-f80:128-n8:16:32:64-S128"
target triple = "x86_64-pc-linux-gnu"

%"class.folly::detail::BenchmarkingState" = type { %"class.folly::detail::BenchmarkingStateBase" }
%"class.folly::detail::BenchmarkingStateBase" = type { ptr, %"class.std::mutex", %"class.std::vector" }
%"class.std::mutex" = type { %"class.std::__mutex_base" }
%"class.std::__mutex_base" = type { %union.pthread_mutex_t }
%union.pthread_mutex_t = type { %struct.__pthread_mutex_s }
%struct.__pthread_mutex_s = type { i32, i32, i32, i32, i32, i16, i16, %struct.__pthread_internal_list }
%struct.__pthread_internal_list = type { ptr, ptr }
%"class.std::vector" = type { %"struct.std::_Vector_base" }
%"struct.std::_Vector_base" = type { %"struct.std::_Vector_base<folly::detail::BenchmarkRegistration, std::allocator<folly::detail::BenchmarkRegistration>>::_Vector_impl" }
%"struct.std::_Vector_base<folly::detail::BenchmarkRegistration, std::allocator<folly::detail::BenchmarkRegistration>>::_Vector_impl" = type { %"struct.std::_Vector_base<folly::detail::BenchmarkRegistration, std::allocator<folly::detail::BenchmarkRegistration>>::_Vector_impl_data" }
%"struct.std::_Vector_base<folly::detail::BenchmarkRegistration, std::allocator<folly::detail::BenchmarkRegistration>>::_Vector_impl_data" = type { ptr, ptr, ptr }
%"struct.std::_Vector_base.28" = type { %"struct.std::_Vector_base<folly::detail::BenchmarkResult, std::allocator<folly::detail::BenchmarkResult>>::_Vector_impl" }
%"struct.std::_Vector_base<folly::detail::BenchmarkResult, std::allocator<folly::detail::BenchmarkResult>>::_Vector_impl" = type { %"struct.std::_Vector_base<folly::detail::BenchmarkResult, std::allocator<folly::detail::BenchmarkResult>>::_Vector_impl_data" }
%"struct.std::_Vector_base<folly::detail::BenchmarkResult, std::allocator<folly::detail::BenchmarkResult>>::_Vector_impl_data" = type { ptr, ptr, ptr }
%"class.std::vector.27" = type { %"struct.std::_Vector_base.28" }

@__dso_handle = external hidden global i8
@_ZZN5folly6detail20globalBenchmarkStateEvE5state = internal global %"class.folly::detail::BenchmarkingState" zeroinitializer, align 8
@_ZGVZN5folly6detail20globalBenchmarkStateEvE5state = internal global i64 0, align 8

; Function Attrs: mustprogress nounwind uwtable
define linkonce_odr void @_ZNSt15__new_allocatorIN5folly6detail21BenchmarkRegistrationEEC2Ev(ptr noundef nonnull align 1 dereferenceable(1) %0) unnamed_addr #0 comdat align 2 {
  %2 = alloca ptr, align 8
  store ptr %0, ptr %2, align 8, !tbaa !78
  ret void
}

; Function Attrs: mustprogress nounwind uwtable
define linkonce_odr void @_ZNSt12_Vector_baseIN5folly6detail21BenchmarkRegistrationESaIS2_EE17_Vector_impl_dataC2Ev(ptr noundef nonnull align 8 dereferenceable(24) %0) unnamed_addr #0 comdat align 2 {
  %2 = alloca ptr, align 8
  store ptr %0, ptr %2, align 8, !tbaa !71
  %3 = load ptr, ptr %2, align 8
  %4 = getelementptr inbounds nuw %"struct.std::_Vector_base<folly::detail::BenchmarkRegistration, std::allocator<folly::detail::BenchmarkRegistration>>::_Vector_impl_data", ptr %3, i32 0, i32 0
  store ptr null, ptr %4, align 8, !tbaa !73
  %5 = getelementptr inbounds nuw %"struct.std::_Vector_base<folly::detail::BenchmarkRegistration, std::allocator<folly::detail::BenchmarkRegistration>>::_Vector_impl_data", ptr %3, i32 0, i32 1
  store ptr null, ptr %5, align 8, !tbaa !76
  %6 = getelementptr inbounds nuw %"struct.std::_Vector_base<folly::detail::BenchmarkRegistration, std::allocator<folly::detail::BenchmarkRegistration>>::_Vector_impl_data", ptr %3, i32 0, i32 2
  store ptr null, ptr %6, align 8, !tbaa !77
  ret void
}

; Function Attrs: mustprogress nounwind uwtable
define linkonce_odr void @_ZNSaIN5folly6detail21BenchmarkRegistrationEEC2Ev(ptr noundef nonnull align 1 dereferenceable(1) %0) unnamed_addr #0 comdat align 2 {
  %2 = alloca ptr, align 8
  store ptr %0, ptr %2, align 8, !tbaa !69
  %3 = load ptr, ptr %2, align 8
  call void @_ZNSt15__new_allocatorIN5folly6detail21BenchmarkRegistrationEEC2Ev(ptr noundef nonnull align 1 dereferenceable(1) %3) #5
  ret void
}

; Function Attrs: mustprogress nounwind uwtable
define linkonce_odr void @_ZNSt12_Vector_baseIN5folly6detail21BenchmarkRegistrationESaIS2_EE12_Vector_implC2Ev(ptr noundef nonnull align 8 dereferenceable(24) %0) unnamed_addr #0 comdat align 2 {
  %2 = alloca ptr, align 8
  store ptr %0, ptr %2, align 8, !tbaa !67
  %3 = load ptr, ptr %2, align 8
  call void @_ZNSaIN5folly6detail21BenchmarkRegistrationEEC2Ev(ptr noundef nonnull align 1 dereferenceable(1) %3) #5
  call void @_ZNSt12_Vector_baseIN5folly6detail21BenchmarkRegistrationESaIS2_EE17_Vector_impl_dataC2Ev(ptr noundef nonnull align 8 dereferenceable(24) %3) #5
  ret void
}

; Function Attrs: mustprogress nounwind uwtable
define linkonce_odr void @_ZNSt12_Vector_baseIN5folly6detail21BenchmarkRegistrationESaIS2_EEC2Ev(ptr noundef nonnull align 8 dereferenceable(24) %0) unnamed_addr #0 comdat align 2 {
  %2 = alloca ptr, align 8
  store ptr %0, ptr %2, align 8, !tbaa !65
  %3 = load ptr, ptr %2, align 8
  %4 = getelementptr inbounds nuw %"struct.std::_Vector_base", ptr %3, i32 0, i32 0
  call void @_ZNSt12_Vector_baseIN5folly6detail21BenchmarkRegistrationESaIS2_EE12_Vector_implC2Ev(ptr noundef nonnull align 8 dereferenceable(24) %4) #5
  ret void
}

; Function Attrs: mustprogress nounwind uwtable
define linkonce_odr void @_ZNSt12__mutex_baseC2Ev(ptr noundef nonnull align 8 dereferenceable(40) %0) unnamed_addr #0 comdat align 2 {
  %2 = alloca ptr, align 8
  store ptr %0, ptr %2, align 8, !tbaa !57
  %3 = load ptr, ptr %2, align 8
  %4 = getelementptr inbounds nuw %"class.std::__mutex_base", ptr %3, i32 0, i32 0
  call void @llvm.memset.p0.i64(ptr align 8 %4, i8 0, i64 40, i1 false)
  %5 = getelementptr inbounds nuw %struct.__pthread_mutex_s, ptr %4, i32 0, i32 4
  store i32 0, ptr %5, align 8, !tbaa !59
  ret void
}

; Function Attrs: mustprogress nounwind uwtable
define linkonce_odr void @_ZNSt6vectorIN5folly6detail21BenchmarkRegistrationESaIS2_EEC2Ev(ptr noundef nonnull align 8 dereferenceable(24) %0) unnamed_addr #0 comdat align 2 {
  %2 = alloca ptr, align 8
  store ptr %0, ptr %2, align 8, !tbaa !55
  %3 = load ptr, ptr %2, align 8
  call void @_ZNSt12_Vector_baseIN5folly6detail21BenchmarkRegistrationESaIS2_EEC2Ev(ptr noundef nonnull align 8 dereferenceable(24) %3) #5
  ret void
}

; Function Attrs: mustprogress nounwind uwtable
define linkonce_odr void @_ZNSt5mutexC2Ev(ptr noundef nonnull align 8 dereferenceable(40) %0) unnamed_addr #0 comdat align 2 {
  %2 = alloca ptr, align 8
  store ptr %0, ptr %2, align 8, !tbaa !53
  %3 = load ptr, ptr %2, align 8
  call void @_ZNSt12__mutex_baseC2Ev(ptr noundef nonnull align 8 dereferenceable(40) %3) #5
  ret void
}

; Function Attrs: inlinehint mustprogress nounwind uwtable
define linkonce_odr void @_ZN5folly6detail21BenchmarkingStateBaseC2Ev(ptr noundef nonnull align 8 dereferenceable(72) %0) unnamed_addr #10 comdat align 2 {
  %2 = alloca ptr, align 8
  store ptr %0, ptr %2, align 8, !tbaa !7
  %3 = load ptr, ptr %2, align 8
  store ptr getelementptr inbounds inrange(-16, 24) ({ [5 x ptr] }, ptr @_ZTVN5folly6detail21BenchmarkingStateBaseE, i32 0, i32 0, i32 2), ptr %3, align 8, !tbaa !12
  %4 = getelementptr inbounds nuw %"class.folly::detail::BenchmarkingStateBase", ptr %3, i32 0, i32 1
  call void @_ZNSt5mutexC2Ev(ptr noundef nonnull align 8 dereferenceable(40) %4) #5
  %5 = getelementptr inbounds nuw %"class.folly::detail::BenchmarkingStateBase", ptr %3, i32 0, i32 2
  call void @_ZNSt6vectorIN5folly6detail21BenchmarkRegistrationESaIS2_EEC2Ev(ptr noundef nonnull align 8 dereferenceable(24) %5) #5
  ret void
}

; Function Attrs: inlinehint mustprogress nounwind uwtable
define linkonce_odr void @_ZN5folly6detail17BenchmarkingStateINSt6chrono3_V212system_clockEEC2Ev(ptr noundef nonnull align 8 dereferenceable(72) %0) unnamed_addr #10 comdat align 2 {
  %2 = alloca ptr, align 8
  store ptr %0, ptr %2, align 8, !tbaa !51
  %3 = load ptr, ptr %2, align 8
  call void @_ZN5folly6detail21BenchmarkingStateBaseC2Ev(ptr noundef nonnull align 8 dereferenceable(72) %3) #5
  store ptr getelementptr inbounds inrange(-16, 24) ({ [5 x ptr] }, ptr @_ZTVN5folly6detail17BenchmarkingStateINSt6chrono3_V212system_clockEEE, i32 0, i32 0, i32 2), ptr %3, align 8, !tbaa !12
  ret void
}

; Function Attrs: mustprogress nounwind uwtable
define noundef nonnull align 8 dereferenceable(72) ptr @_ZN5folly6detail20globalBenchmarkStateEv() #0 {
  %1 = load atomic i8, ptr @_ZGVZN5folly6detail20globalBenchmarkStateEvE5state acquire, align 8
  %2 = icmp eq i8 %1, 0
  br i1 %2, label %3, label %8, !prof !50

3:                                                ; preds = %0
  %4 = call i32 @__cxa_guard_acquire(ptr @_ZGVZN5folly6detail20globalBenchmarkStateEvE5state) #5
  %5 = icmp ne i32 %4, 0
  br i1 %5, label %6, label %8

6:                                                ; preds = %3
  call void @_ZN5folly6detail17BenchmarkingStateINSt6chrono3_V212system_clockEEC2Ev(ptr noundef nonnull align 8 dereferenceable(72) @_ZZN5folly6detail20globalBenchmarkStateEvE5state) #5
  %7 = call i32 @__cxa_atexit(ptr @_ZN5folly6detail21BenchmarkingStateBaseD2Ev, ptr @_ZZN5folly6detail20globalBenchmarkStateEvE5state, ptr @__dso_handle) #5
  call void @__cxa_guard_release(ptr @_ZGVZN5folly6detail20globalBenchmarkStateEvE5state) #5
  br label %8

8:                                                ; preds = %6, %3, %0
  ret ptr @_ZZN5folly6detail20globalBenchmarkStateEvE5state
}

; Function Attrs: mustprogress uwtable
define void @_ZN5folly6detail24runBenchmarksWithResultsEv(ptr dead_on_unwind noalias writable sret(%"class.std::vector.27") align 8 %0) #1 {
  %2 = alloca ptr, align 8
  store ptr %0, ptr %2, align 8
  %3 = call noundef nonnull align 8 dereferenceable(72) ptr @_ZN5folly6detail20globalBenchmarkStateEv()
  call void @_ZNK5folly6detail21BenchmarkingStateBase24runBenchmarksWithResultsEv(ptr dead_on_unwind writable sret(%"class.std::vector.27") align 8 %0, ptr noundef nonnull align 8 dereferenceable(72) %3)
  ret void
}