; Function Attrs: mustprogress uwtable
define void @_ZN5folly6detail24runBenchmarksWithResultsEv(ptr dead_on_unwind noalias writable writeonly sret(%"class.std::vector.27") align 8 captures(none) initializes((0, 24)) %0) local_unnamed_addr #1 {
  %2 = load atomic i8, ptr @_ZGVZN5folly6detail20globalBenchmarkStateEvE5state acquire, align 8
  %3 = icmp eq i8 %2, 0
  br i1 %3, label %4, label %_ZN5folly6detail20globalBenchmarkStateEv.exit, !prof !24

4:                                                ; preds = %1
  %5 = tail call i32 @__cxa_guard_acquire(ptr nonnull @_ZGVZN5folly6detail20globalBenchmarkStateEvE5state) #41
  %.not.i = icmp eq i32 %5, 0
  br i1 %.not.i, label %_ZN5folly6detail20globalBenchmarkStateEv.exit, label %6

6:                                                ; preds = %4
  tail call void @llvm.memset.p0.i64(ptr noundef nonnull align 8 dereferenceable(64) getelementptr inbounds nuw (i8, ptr @_ZZN5folly6detail20globalBenchmarkStateEvE5state, i64 8), i8 0, i64 64, i1 false)
  store ptr getelementptr inbounds nuw inrange(-16, 24) (i8, ptr @_ZTVN5folly6detail17BenchmarkingStateINSt6chrono3_V212system_clockEEE, i64 16), ptr @_ZZN5folly6detail20globalBenchmarkStateEvE5state, align 8, !tbaa !7
  %7 = tail call i32 @__cxa_atexit(ptr nonnull @_ZN5folly6detail21BenchmarkingStateBaseD2Ev, ptr nonnull @_ZZN5folly6detail20globalBenchmarkStateEvE5state, ptr nonnull @__dso_handle) #41
  tail call void @__cxa_guard_release(ptr nonnull @_ZGVZN5folly6detail20globalBenchmarkStateEvE5state) #41
  br label %_ZN5folly6detail20globalBenchmarkStateEv.exit

_ZN5folly6detail20globalBenchmarkStateEv.exit:    ; preds = %1, %4, %6
  tail call void @_ZNK5folly6detail21BenchmarkingStateBase24runBenchmarksWithResultsEv(ptr dead_on_unwind writable sret(%"class.std::vector.27") align 8 %0, ptr noundef nonnull align 8 dereferenceable(72) @_ZZN5folly6detail20globalBenchmarkStateEvE5state)
  ret void
}